; Function Attrs: null_pointer_is_valid sspstrong uwtable
define internal range(i32 -268435456, 268435456) i32 @dissect_PDCMeasurementInitiationFailure_PDU(ptr noundef %0, ptr noundef %1, ptr noundef %2, ptr readnone captures(none) %3) #0 {
  %5 = alloca %struct._asn1_ctx_t, align 8
  call void @llvm.lifetime.start.p0(i64 208, ptr nonnull %5) #6
  call void @asn1_ctx_init(ptr noundef nonnull %5, i32 noundef 1, i1 noundef zeroext true, ptr noundef %1)
  %6 = load i32, ptr @hf_f1ap_PDCMeasurementInitiationFailure_PDU, align 4
  %7 = call ptr @val_to_str_ext_const(i32 noundef 124, ptr noundef nonnull @mtype_names_ext, ptr noundef nonnull @.str.7158)
  %8 = getelementptr inbounds nuw i8, ptr %5, i64 16
  %9 = load ptr, ptr %8, align 8
  %10 = getelementptr inbounds nuw i8, ptr %9, i64 8
  %11 = load ptr, ptr %10, align 8
  call void @col_append_sep_str(ptr noundef %11, i32 noundef 25, ptr noundef null, ptr noundef %7)
  %12 = load ptr, ptr @top_tree, align 8
  call void (ptr, ptr, ...) @proto_item_append_text(ptr noundef %12, ptr noundef nonnull @.str.7159, ptr noundef %7)
  %13 = load ptr, ptr %8, align 8
  %14 = call ptr @wmem_file_scope()
  %15 = load i32, ptr @proto_f1ap, align 4
  %16 = call ptr @p_get_proto_data(ptr noundef %14, ptr noundef %13, i32 noundef %15, i32 noundef 0)
  %.not.i.i.i = icmp eq ptr %16, null
  br i1 %.not.i.i.i, label %17, label %dissect_f1ap_PDCMeasurementInitiationFailure.exit

17:                                               ; preds = %4
  %18 = call ptr @wmem_file_scope()
  %19 = call noalias dereferenceable_or_null(48) ptr @wmem_alloc0(ptr noundef %18, i64 noundef 48) #7
  %20 = getelementptr inbounds nuw i8, ptr %19, i64 28
  store i32 -1, ptr %20, align 4
  %21 = getelementptr inbounds nuw i8, ptr %19, i64 32
  store i32 1, ptr %21, align 8
  %22 = call ptr @wmem_file_scope()
  %23 = load i32, ptr @proto_f1ap, align 4
  call void @p_add_proto_data(ptr noundef %22, ptr noundef %13, i32 noundef %23, i32 noundef 0, ptr noundef %19)
  br label %dissect_f1ap_PDCMeasurementInitiationFailure.exit

dissect_f1ap_PDCMeasurementInitiationFailure.exit: ; preds = %4, %17
  %.0.i.i.i = phi ptr [ %16, %4 ], [ %19, %17 ]
  %24 = getelementptr inbounds nuw i8, ptr %.0.i.i.i, i64 40
  %25 = load ptr, ptr %24, align 8
  store i32 124, ptr %25, align 4
  %26 = load i32, ptr @ett_f1ap_PDCMeasurementInitiationFailure, align 4
  %27 = call i32 @dissect_per_sequence(ptr noundef %0, i32 noundef 0, ptr noundef nonnull %5, ptr noundef %2, i32 noundef %6, i32 noundef %26, ptr noundef nonnull @PDCMeasurementInitiationFailure_sequence)
  %28 = add i32 %27, 7
  %29 = ashr i32 %28, 3
  call void @llvm.lifetime.end.p0(i64 208, ptr nonnull %5) #6
  ret i32 %29
}